target datalayout = "e-m:e-p270:32:32-p271:32:32-p272:64:64-i64:64-i128:128-f80:128-n8:16:32:64-S128"
target triple = "x86_64-pc-linux-gnu"

%struct.SnapshotData = type { i32, i32, i32, ptr, i32, ptr, i32, i8, i8, i8, i32, i32, ptr, i32, i32, %struct.pairingheap_node, i64 }
%struct.pairingheap_node = type { ptr, ptr, ptr }
%struct.TM_FailureData = type { %struct.ItemPointerData, i32, i32, i8 }
%struct.ItemPointerData = type { %struct.BlockIdData, i16 }
%struct.BlockIdData = type { i16, i16 }
%struct.TupleTableSlot = type { i32, i16, i16, ptr, ptr, ptr, ptr, ptr, %struct.ItemPointerData, i32 }
%struct.TupleDescData = type { i32, i32, i32, i32, ptr, [0 x %struct.CompactAttribute] }
%struct.CompactAttribute = type { i32, i16, i8, i8, i8, i8, i8, i8, i8 }
%struct.RelationData = type { %struct.RelFileLocator, ptr, i32, i32, i8, i8, i8, i8, i8, i32, i32, i32, i32, ptr, ptr, i32, %struct.LockInfoData, ptr, ptr, ptr, ptr, ptr, i8, ptr, ptr, ptr, ptr, ptr, ptr, i32, ptr, i8, ptr, ptr, i32, i8, i32, ptr, i8, ptr, ptr, ptr, ptr, ptr, ptr, ptr, i32, ptr, ptr, ptr, ptr, ptr, ptr, ptr, ptr, ptr, ptr, ptr, ptr, ptr, ptr, ptr, ptr, ptr, ptr, ptr, i32, i8, ptr }
%struct.RelFileLocator = type { i32, i32, i32 }
%struct.LockInfoData = type { %struct.LockRelId }
%struct.LockRelId = type { i32, i32 }
%struct.TupleTableSlotOps = type { i64, ptr, ptr, ptr, ptr, ptr, ptr, ptr, ptr, ptr, ptr, ptr, ptr }
%struct.TableAmRoutine = type { i32, ptr, ptr, ptr, ptr, ptr, ptr, ptr, ptr, ptr, ptr, ptr, ptr, ptr, ptr, ptr, ptr, ptr, ptr, ptr, ptr, ptr, ptr, ptr, ptr, ptr, ptr, ptr, ptr, ptr, ptr, ptr, ptr, ptr, ptr, ptr, ptr, ptr, ptr, ptr, ptr, ptr, ptr, ptr, ptr, ptr }
%struct.TableScanDescData = type { ptr, ptr, i32, ptr, %union.anon, i32, ptr }
%union.anon = type { %struct.TBMIterator }
%struct.TBMIterator = type { i8, %union.anon.0 }
%union.anon.0 = type { ptr }

@CheckXidAlive = external global i32, align 4
@bsysscan = external global i8, align 1
@.str.18 = private unnamed_addr constant [63 x i8] c"unexpected table_scan_getnextslot call during logical decoding\00", align 1
@.str.19 = private unnamed_addr constant [38 x i8] c"../../../src/include/access/tableam.h\00", align 1
@__func__.table_scan_getnextslot = private unnamed_addr constant [23 x i8] c"table_scan_getnextslot\00", align 1

; Function Attrs: inlinehint nounwind uwtable
define internal void @table_endscan(ptr noundef %0) #3 {
  %2 = alloca ptr, align 8
  store ptr %0, ptr %2, align 8
  %3 = load ptr, ptr %2, align 8
  %4 = getelementptr inbounds nuw %struct.TableScanDescData, ptr %3, i32 0, i32 0
  %5 = load ptr, ptr %4, align 8
  %6 = getelementptr inbounds nuw %struct.RelationData, ptr %5, i32 0, i32 47
  %7 = load ptr, ptr %6, align 8
  %8 = getelementptr inbounds nuw %struct.TableAmRoutine, ptr %7, i32 0, i32 3
  %9 = load ptr, ptr %8, align 8
  %10 = load ptr, ptr %2, align 8
  call void %9(ptr noundef %10)
  ret void
}

; Function Attrs: inlinehint nounwind uwtable
define internal i32 @table_tuple_lock(ptr noundef %0, ptr noundef %1, ptr noundef %2, ptr noundef %3, i32 noundef %4, i32 noundef %5, i32 noundef %6, i8 noundef zeroext %7, ptr noundef %8) #3 {
  %10 = alloca ptr, align 8
  %11 = alloca ptr, align 8
  %12 = alloca ptr, align 8
  %13 = alloca ptr, align 8
  %14 = alloca i32, align 4
  %15 = alloca i32, align 4
  %16 = alloca i32, align 4
  %17 = alloca i8, align 1
  %18 = alloca ptr, align 8
  store ptr %0, ptr %10, align 8
  store ptr %1, ptr %11, align 8
  store ptr %2, ptr %12, align 8
  store ptr %3, ptr %13, align 8
  store i32 %4, ptr %14, align 4
  store i32 %5, ptr %15, align 4
  store i32 %6, ptr %16, align 4
  store i8 %7, ptr %17, align 1
  store ptr %8, ptr %18, align 8
  %19 = load ptr, ptr %10, align 8
  %20 = getelementptr inbounds nuw %struct.RelationData, ptr %19, i32 0, i32 47
  %21 = load ptr, ptr %20, align 8
  %22 = getelementptr inbounds nuw %struct.TableAmRoutine, ptr %21, i32 0, i32 26
  %23 = load ptr, ptr %22, align 8
  %24 = load ptr, ptr %10, align 8
  %25 = load ptr, ptr %11, align 8
  %26 = load ptr, ptr %12, align 8
  %27 = load ptr, ptr %13, align 8
  %28 = load i32, ptr %14, align 4
  %29 = load i32, ptr %15, align 4
  %30 = load i32, ptr %16, align 4
  %31 = load i8, ptr %17, align 1
  %32 = load ptr, ptr %18, align 8
  %33 = call i32 %23(ptr noundef %24, ptr noundef %25, ptr noundef %26, ptr noundef %27, i32 noundef %28, i32 noundef %29, i32 noundef %30, i8 noundef zeroext %31, ptr noundef %32)
  ret i32 %33
}

; Function Attrs: inlinehint nounwind uwtable
define internal ptr @ExecCopySlot(ptr noundef %0, ptr noundef %1) #3 {
  %3 = alloca ptr, align 8
  %4 = alloca ptr, align 8
  store ptr %0, ptr %3, align 8
  store ptr %1, ptr %4, align 8
  %5 = load ptr, ptr %3, align 8
  %6 = getelementptr inbounds nuw %struct.TupleTableSlot, ptr %5, i32 0, i32 3
  %7 = load ptr, ptr %6, align 8
  %8 = getelementptr inbounds nuw %struct.TupleTableSlotOps, ptr %7, i32 0, i32 8
  %9 = load ptr, ptr %8, align 8
  %10 = load ptr, ptr %3, align 8
  %11 = load ptr, ptr %4, align 8
  call void %9(ptr noundef %10, ptr noundef %11)
  %12 = load ptr, ptr %3, align 8
  ret ptr %12
}

; Function Attrs: inlinehint nounwind uwtable
define internal zeroext i1 @table_scan_getnextslot(ptr noundef %0, i32 noundef %1, ptr noundef %2) #3 {
  %4 = alloca ptr, align 8
  %5 = alloca i32, align 4
  %6 = alloca ptr, align 8
  store ptr %0, ptr %4, align 8
  store i32 %1, ptr %5, align 4
  store ptr %2, ptr %6, align 8
  %7 = load ptr, ptr %4, align 8
  %8 = getelementptr inbounds nuw %struct.TableScanDescData, ptr %7, i32 0, i32 0
  %9 = load ptr, ptr %8, align 8
  %10 = getelementptr inbounds nuw %struct.RelationData, ptr %9, i32 0, i32 15
  %11 = load i32, ptr %10, align 8
  %12 = load ptr, ptr %6, align 8
  %13 = getelementptr inbounds nuw %struct.TupleTableSlot, ptr %12, i32 0, i32 9
  store i32 %11, ptr %13, align 8
  %14 = load i32, ptr @CheckXidAlive, align 4
  %15 = icmp ne i32 %14, 0
  br i1 %15, label %16, label %20

16:                                               ; preds = %3
  %17 = load i8, ptr @bsysscan, align 1, !range !4, !noundef !5
  %18 = trunc i8 %17 to i1
  %19 = xor i1 %18, true
  br label %20

20:                                               ; preds = %16, %3
  %21 = phi i1 [ false, %3 ], [ %19, %16 ]
  %22 = zext i1 %21 to i32
  %23 = icmp ne i32 %22, 0
  %24 = zext i1 %23 to i32
  %25 = sext i32 %24 to i64
  %26 = call i64 @llvm.expect.i64(i64 %25, i64 0)
  %27 = icmp ne i64 %26, 0
  br i1 %27, label %28, label %38

28:                                               ; preds = %20
  br label %29

29:                                               ; preds = %28
  br i1 true, label %30, label %32

30:                                               ; preds = %29
  %31 = call zeroext i1 @errstart_cold(i32 noundef 21, ptr noundef null) #8
  br i1 %31, label %34, label %36

32:                                               ; preds = %29
  %33 = call zeroext i1 @errstart(i32 noundef 21, ptr noundef null)
  br i1 %33, label %34, label %36

34:                                               ; preds = %32, %30
  %35 = call i32 (ptr, ...) @errmsg_internal(ptr noundef @.str.18)
  call void @errfinish(ptr noundef @.str.19, i32 noundef 1075, ptr noundef @__func__.table_scan_getnextslot)
  br label %36

36:                                               ; preds = %34, %32, %30
  unreachable

37:                                               ; No predecessors!
  br label %38

38:                                               ; preds = %37, %20
  %39 = load ptr, ptr %4, align 8
  %40 = getelementptr inbounds nuw %struct.TableScanDescData, ptr %39, i32 0, i32 0
  %41 = load ptr, ptr %40, align 8
  %42 = getelementptr inbounds nuw %struct.RelationData, ptr %41, i32 0, i32 47
  %43 = load ptr, ptr %42, align 8
  %44 = getelementptr inbounds nuw %struct.TableAmRoutine, ptr %43, i32 0, i32 5
  %45 = load ptr, ptr %44, align 8
  %46 = load ptr, ptr %4, align 8
  %47 = load i32, ptr %5, align 4
  %48 = load ptr, ptr %6, align 8
  %49 = call zeroext i1 %45(ptr noundef %46, i32 noundef %47, ptr noundef %48)
  ret i1 %49
}

; Function Attrs: inlinehint nounwind uwtable
define internal void @table_rescan(ptr noundef %0, ptr noundef %1) #3 {
  %3 = alloca ptr, align 8
  %4 = alloca ptr, align 8
  store ptr %0, ptr %3, align 8
  store ptr %1, ptr %4, align 8
  %5 = load ptr, ptr %3, align 8
  %6 = getelementptr inbounds nuw %struct.TableScanDescData, ptr %5, i32 0, i32 0
  %7 = load ptr, ptr %6, align 8
  %8 = getelementptr inbounds nuw %struct.RelationData, ptr %7, i32 0, i32 47
  %9 = load ptr, ptr %8, align 8
  %10 = getelementptr inbounds nuw %struct.TableAmRoutine, ptr %9, i32 0, i32 4
  %11 = load ptr, ptr %10, align 8
  %12 = load ptr, ptr %3, align 8
  %13 = load ptr, ptr %4, align 8
  call void %11(ptr noundef %12, ptr noundef %13, i1 noundef zeroext false, i1 noundef zeroext false, i1 noundef zeroext false, i1 noundef zeroext false)
  ret void
}

; Function Attrs: inlinehint nounwind uwtable
define internal ptr @table_beginscan(ptr noundef %0, ptr noundef %1, i32 noundef %2, ptr noundef %3) #3 {
  %5 = alloca ptr, align 8
  %6 = alloca ptr, align 8
  %7 = alloca i32, align 4
  %8 = alloca ptr, align 8
  %9 = alloca i32, align 4
  store ptr %0, ptr %5, align 8
  store ptr %1, ptr %6, align 8
  store i32 %2, ptr %7, align 4
  store ptr %3, ptr %8, align 8
  call void @llvm.lifetime.start.p0(i64 4, ptr %9) #7
  store i32 449, ptr %9, align 4
  %10 = load ptr, ptr %5, align 8
  %11 = getelementptr inbounds nuw %struct.RelationData, ptr %10, i32 0, i32 47
  %12 = load ptr, ptr %11, align 8
  %13 = getelementptr inbounds nuw %struct.TableAmRoutine, ptr %12, i32 0, i32 2
  %14 = load ptr, ptr %13, align 8
  %15 = load ptr, ptr %5, align 8
  %16 = load ptr, ptr %6, align 8
  %17 = load i32, ptr %7, align 4
  %18 = load ptr, ptr %8, align 8
  %19 = load i32, ptr %9, align 4
  %20 = call ptr %14(ptr noundef %15, ptr noundef %16, i32 noundef %17, ptr noundef %18, ptr noundef null, i32 noundef %19)
  call void @llvm.lifetime.end.p0(i64 4, ptr %9) #7
  ret ptr %20
}

; Function Attrs: nounwind uwtable
define dso_local zeroext i1 @RelationFindReplTupleSeq(ptr noundef %0, i32 noundef %1, ptr noundef %2, ptr noundef %3) #0 {
  %5 = alloca ptr, align 8
  %6 = alloca i32, align 4
  %7 = alloca ptr, align 8
  %8 = alloca ptr, align 8
  %9 = alloca ptr, align 8
  %10 = alloca ptr, align 8
  %11 = alloca %struct.SnapshotData, align 8
  %12 = alloca ptr, align 8
  %13 = alloca i32, align 4
  %14 = alloca i8, align 1
  %15 = alloca ptr, align 8
  %16 = alloca %struct.TM_FailureData, align 4
  %17 = alloca i32, align 4
  %18 = alloca i32, align 4
  store ptr %0, ptr %5, align 8
  store i32 %1, ptr %6, align 4
  store ptr %2, ptr %7, align 8
  store ptr %3, ptr %8, align 8
  call void @llvm.lifetime.start.p0(i64 8, ptr %9) #7
  call void @llvm.lifetime.start.p0(i64 8, ptr %10) #7
  call void @llvm.lifetime.start.p0(i64 104, ptr %11) #7
  call void @llvm.lifetime.start.p0(i64 8, ptr %12) #7
  call void @llvm.lifetime.start.p0(i64 4, ptr %13) #7
  call void @llvm.lifetime.start.p0(i64 1, ptr %14) #7
  call void @llvm.lifetime.start.p0(i64 8, ptr %15) #7
  %19 = load ptr, ptr %5, align 8
  %20 = getelementptr inbounds nuw %struct.RelationData, ptr %19, i32 0, i32 14
  %21 = load ptr, ptr %20, align 8
  store ptr %21, ptr %15, align 8
  %22 = load ptr, ptr %8, align 8
  %23 = getelementptr inbounds nuw %struct.TupleTableSlot, ptr %22, i32 0, i32 4
  %24 = load ptr, ptr %23, align 8
  %25 = getelementptr inbounds nuw %struct.TupleDescData, ptr %24, i32 0, i32 0
  %26 = load i32, ptr %25, align 8
  %27 = sext i32 %26 to i64
  %28 = mul i64 8, %27
  %29 = call ptr @palloc0(i64 noundef %28)
  store ptr %29, ptr %12, align 8
  %30 = getelementptr inbounds nuw %struct.SnapshotData, ptr %11, i32 0, i32 0
  store i32 4, ptr %30, align 8
  %31 = load ptr, ptr %5, align 8
  %32 = call ptr @table_beginscan(ptr noundef %31, ptr noundef %11, i32 noundef 0, ptr noundef null)
  store ptr %32, ptr %10, align 8
  %33 = load ptr, ptr %5, align 8
  %34 = call ptr @table_slot_create(ptr noundef %33, ptr noundef null)
  store ptr %34, ptr %9, align 8
  br label %35

35:                                               ; preds = %84, %64, %4
  store i8 0, ptr %14, align 1
  %36 = load ptr, ptr %10, align 8
  call void @table_rescan(ptr noundef %36, ptr noundef null)
  br label %37

37:                                               ; preds = %46, %35
  %38 = load ptr, ptr %10, align 8
  %39 = load ptr, ptr %9, align 8
  %40 = call zeroext i1 @table_scan_getnextslot(ptr noundef %38, i32 noundef 1, ptr noundef %39)
  br i1 %40, label %41, label %67

41:                                               ; preds = %37
  %42 = load ptr, ptr %9, align 8
  %43 = load ptr, ptr %7, align 8
  %44 = load ptr, ptr %12, align 8
  %45 = call zeroext i1 @tuples_equal(ptr noundef %42, ptr noundef %43, ptr noundef %44)
  br i1 %45, label %47, label %46

46:                                               ; preds = %41
  br label %37, !llvm.loop !10

47:                                               ; preds = %41
  store i8 1, ptr %14, align 1
  %48 = load ptr, ptr %8, align 8
  %49 = load ptr, ptr %9, align 8
  %50 = call ptr @ExecCopySlot(ptr noundef %48, ptr noundef %49)
  %51 = getelementptr inbounds nuw %struct.SnapshotData, ptr %11, i32 0, i32 1
  %52 = load i32, ptr %51, align 4
  %53 = icmp ne i32 %52, 0
  br i1 %53, label %54, label %57

54:                                               ; preds = %47
  %55 = getelementptr inbounds nuw %struct.SnapshotData, ptr %11, i32 0, i32 1
  %56 = load i32, ptr %55, align 4
  br label %60

57:                                               ; preds = %47
  %58 = getelementptr inbounds nuw %struct.SnapshotData, ptr %11, i32 0, i32 2
  %59 = load i32, ptr %58, align 8
  br label %60

60:                                               ; preds = %57, %54
  %61 = phi i32 [ %56, %54 ], [ %59, %57 ]
  store i32 %61, ptr %13, align 4
  %62 = load i32, ptr %13, align 4
  %63 = icmp ne i32 %62, 0
  br i1 %63, label %64, label %66

64:                                               ; preds = %60
  %65 = load i32, ptr %13, align 4
  call void @XactLockTableWait(i32 noundef %65, ptr noundef null, ptr noundef null, i32 noundef 0)
  br label %35

66:                                               ; preds = %60
  br label %67

67:                                               ; preds = %66, %37
  %68 = load i8, ptr %14, align 1, !range !4, !noundef !5
  %69 = trunc i8 %68 to i1
  br i1 %69, label %70, label %87

70:                                               ; preds = %67
  call void @llvm.lifetime.start.p0(i64 20, ptr %16) #7
  call void @llvm.lifetime.start.p0(i64 4, ptr %17) #7
  %71 = call ptr @GetLatestSnapshot()
  call void @PushActiveSnapshot(ptr noundef %71)
  %72 = load ptr, ptr %5, align 8
  %73 = load ptr, ptr %8, align 8
  %74 = getelementptr inbounds nuw %struct.TupleTableSlot, ptr %73, i32 0, i32 8
  %75 = call ptr @GetLatestSnapshot()
  %76 = load ptr, ptr %8, align 8
  %77 = call i32 @GetCurrentCommandId(i1 noundef zeroext false)
  %78 = load i32, ptr %6, align 4
  %79 = call i32 @table_tuple_lock(ptr noundef %72, ptr noundef %74, ptr noundef %75, ptr noundef %76, i32 noundef %77, i32 noundef %78, i32 noundef 0, i8 noundef zeroext 0, ptr noundef %16)
  store i32 %79, ptr %17, align 4
  call void @PopActiveSnapshot()
  %80 = load i32, ptr %17, align 4
  %81 = call zeroext i1 @should_refetch_tuple(i32 noundef %80, ptr noundef %16)
  br i1 %81, label %82, label %83

82:                                               ; preds = %70
  store i32 2, ptr %18, align 4
  br label %84

83:                                               ; preds = %70
  store i32 0, ptr %18, align 4
  br label %84

84:                                               ; preds = %83, %82
  call void @llvm.lifetime.end.p0(i64 4, ptr %17) #7
  call void @llvm.lifetime.end.p0(i64 20, ptr %16) #7
  %85 = load i32, ptr %18, align 4
  switch i32 %85, label %92 [
    i32 0, label %86
    i32 2, label %35
  ]

86:                                               ; preds = %84
  br label %87

87:                                               ; preds = %86, %67
  %88 = load ptr, ptr %10, align 8
  call void @table_endscan(ptr noundef %88)
  %89 = load ptr, ptr %9, align 8
  call void @ExecDropSingleTupleTableSlot(ptr noundef %89)
  %90 = load i8, ptr %14, align 1, !range !4, !noundef !5
  %91 = trunc i8 %90 to i1
  store i32 1, ptr %18, align 4
  call void @llvm.lifetime.end.p0(i64 8, ptr %15) #7
  call void @llvm.lifetime.end.p0(i64 1, ptr %14) #7
  call void @llvm.lifetime.end.p0(i64 4, ptr %13) #7
  call void @llvm.lifetime.end.p0(i64 8, ptr %12) #7
  call void @llvm.lifetime.end.p0(i64 104, ptr %11) #7
  call void @llvm.lifetime.end.p0(i64 8, ptr %10) #7
  call void @llvm.lifetime.end.p0(i64 8, ptr %9) #7
  ret i1 %91

92:                                               ; preds = %84
  unreachable
}