; Function Attrs: nounwind uwtable
define dso_local noundef zeroext i1 @RelationFindReplTupleSeq(ptr noundef %0, i32 noundef %1, ptr noundef %2, ptr noundef %3) local_unnamed_addr #0 {
  %5 = alloca %struct.SnapshotData, align 8
  %6 = alloca %struct.TM_FailureData, align 4
  call void @llvm.lifetime.start.p0(i64 104, ptr nonnull %5) #5
  %7 = getelementptr inbounds nuw i8, ptr %3, i64 16
  %8 = load ptr, ptr %7, align 8
  %9 = load i32, ptr %8, align 8
  %10 = sext i32 %9 to i64
  %11 = shl nsw i64 %10, 3
  %12 = tail call ptr @palloc0(i64 noundef %11) #5
  store i32 4, ptr %5, align 8
  %13 = getelementptr inbounds nuw i8, ptr %0, i64 320
  %14 = load ptr, ptr %13, align 8
  %15 = getelementptr inbounds nuw i8, ptr %14, i64 16
  %16 = load ptr, ptr %15, align 8
  %17 = call ptr %16(ptr noundef %0, ptr noundef nonnull %5, i32 noundef 0, ptr noundef null, ptr noundef null, i32 noundef 449) #5
  %18 = call ptr @table_slot_create(ptr noundef %0, ptr noundef null) #5
  %19 = getelementptr inbounds nuw i8, ptr %18, i64 56
  %20 = getelementptr inbounds nuw i8, ptr %3, i64 8
  %21 = getelementptr inbounds nuw i8, ptr %5, i64 4
  %22 = getelementptr inbounds nuw i8, ptr %5, i64 8
  %23 = getelementptr inbounds nuw i8, ptr %3, i64 48
  br label %.backedge

.backedge:                                        ; preds = %.backedge.backedge, %4
  %24 = load ptr, ptr %17, align 8
  %25 = getelementptr inbounds nuw i8, ptr %24, i64 320
  %26 = load ptr, ptr %25, align 8
  %27 = getelementptr inbounds nuw i8, ptr %26, i64 32
  %28 = load ptr, ptr %27, align 8
  call void %28(ptr noundef nonnull %17, ptr noundef null, i1 noundef zeroext false, i1 noundef zeroext false, i1 noundef zeroext false, i1 noundef zeroext false) #5
  br label %29

29:                                               ; preds = %46, %.backedge
  %30 = load ptr, ptr %17, align 8
  %31 = getelementptr inbounds nuw i8, ptr %30, i64 72
  %32 = load i32, ptr %31, align 8
  store i32 %32, ptr %19, align 8
  %33 = load i32, ptr @CheckXidAlive, align 4
  %34 = icmp eq i32 %33, 0
  %35 = load i8, ptr @bsysscan, align 1, !range !4
  %36 = trunc nuw i8 %35 to i1
  %.not5.i = select i1 %34, i1 true, i1 %36
  br i1 %.not5.i, label %table_scan_getnextslot.exit, label %37, !prof !10

37:                                               ; preds = %29
  %38 = call zeroext i1 @errstart_cold(i32 noundef 21, ptr noundef null) #6
  call void @llvm.assume(i1 %38)
  %39 = call i32 (ptr, ...) @errmsg_internal(ptr noundef nonnull @.str.18) #5
  call void @errfinish(ptr noundef nonnull @.str.19, i32 noundef 1075, ptr noundef nonnull @__func__.table_scan_getnextslot) #5
  unreachable

table_scan_getnextslot.exit:                      ; preds = %29
  %40 = load ptr, ptr %17, align 8
  %41 = getelementptr inbounds nuw i8, ptr %40, i64 320
  %42 = load ptr, ptr %41, align 8
  %43 = getelementptr inbounds nuw i8, ptr %42, i64 40
  %44 = load ptr, ptr %43, align 8
  %45 = call zeroext i1 %44(ptr noundef nonnull %17, i32 noundef 1, ptr noundef nonnull %18) #5
  br i1 %45, label %46, label %.critedge

46:                                               ; preds = %table_scan_getnextslot.exit
  %47 = call fastcc zeroext i1 @tuples_equal(ptr noundef nonnull %18, ptr noundef %2, ptr noundef %12)
  br i1 %47, label %48, label %29, !llvm.loop !11

48:                                               ; preds = %46
  %49 = load ptr, ptr %20, align 8
  %50 = getelementptr inbounds nuw i8, ptr %49, i64 64
  %51 = load ptr, ptr %50, align 8
  call void %51(ptr noundef %3, ptr noundef nonnull %18) #5
  %52 = load i32, ptr %21, align 4
  %.not = icmp eq i32 %52, 0
  %53 = load i32, ptr %22, align 8
  %54 = select i1 %.not, i32 %53, i32 %52
  %.not25 = icmp eq i32 %54, 0
  br i1 %.not25, label %56, label %55

55:                                               ; preds = %48
  call void @XactLockTableWait(i32 noundef %54, ptr noundef null, ptr noundef null, i32 noundef 0) #5
  br label %.backedge.backedge

.backedge.backedge:                               ; preds = %55, %56
  br label %.backedge

56:                                               ; preds = %48
  call void @llvm.lifetime.start.p0(i64 20, ptr nonnull %6) #5
  %57 = call ptr @GetLatestSnapshot() #5
  call void @PushActiveSnapshot(ptr noundef %57) #5
  %58 = call ptr @GetLatestSnapshot() #5
  %59 = call i32 @GetCurrentCommandId(i1 noundef zeroext false) #5
  %60 = load ptr, ptr %13, align 8
  %61 = getelementptr inbounds nuw i8, ptr %60, i64 208
  %62 = load ptr, ptr %61, align 8
  %63 = call i32 %62(ptr noundef %0, ptr noundef nonnull %23, ptr noundef %58, ptr noundef nonnull %3, i32 noundef %59, i32 noundef %1, i32 noundef 0, i8 noundef zeroext 0, ptr noundef nonnull %6) #5
  call void @PopActiveSnapshot() #5
  %64 = call fastcc zeroext i1 @should_refetch_tuple(i32 noundef %63, ptr noundef %6)
  call void @llvm.lifetime.end.p0(i64 20, ptr nonnull %6) #5
  br i1 %64, label %.backedge.backedge, label %.critedge

.critedge:                                        ; preds = %56, %table_scan_getnextslot.exit
  %65 = load ptr, ptr %17, align 8
  %66 = getelementptr inbounds nuw i8, ptr %65, i64 320
  %67 = load ptr, ptr %66, align 8
  %68 = getelementptr inbounds nuw i8, ptr %67, i64 24
  %69 = load ptr, ptr %68, align 8
  call void %69(ptr noundef nonnull %17) #5
  call void @ExecDropSingleTupleTableSlot(ptr noundef nonnull %18) #5
  call void @llvm.lifetime.end.p0(i64 104, ptr nonnull %5) #5
  ret i1 %45
}